; Function Attrs: nounwind uwtable
define hidden void @SDL_BindGPUVertexSamplers_REAL(ptr noundef readonly captures(address_is_null) %0, i32 noundef %1, ptr noundef %2, i32 noundef %3) local_unnamed_addr #0 {
  %5 = icmp eq ptr %0, null
  br i1 %5, label %6, label %8

6:                                                ; preds = %4
  %7 = tail call zeroext i1 (ptr, ...) @SDL_SetError_REAL(ptr noundef nonnull @.str.4, ptr noundef nonnull @.str.225) #7
  br label %.thread

8:                                                ; preds = %4
  %9 = icmp eq ptr %2, null
  %10 = icmp ne i32 %3, 0
  %or.cond = and i1 %9, %10
  br i1 %or.cond, label %11, label %13

11:                                               ; preds = %8
  %12 = tail call zeroext i1 (ptr, ...) @SDL_SetError_REAL(ptr noundef nonnull @.str.4, ptr noundef nonnull @.str.233) #7
  br label %.thread

13:                                               ; preds = %8
  %14 = load ptr, ptr %0, align 8
  %15 = load ptr, ptr %14, align 8
  %16 = getelementptr inbounds nuw i8, ptr %15, i64 684
  %17 = load i8, ptr %16, align 4, !range !5, !noundef !6
  %18 = trunc nuw i8 %17 to i1
  br i1 %18, label %19, label %.loopexit

19:                                               ; preds = %13
  %20 = getelementptr inbounds nuw i8, ptr %0, i64 8
  %21 = load i8, ptr %20, align 8, !range !5, !noundef !6
  %22 = trunc nuw i8 %21 to i1
  br i1 %22, label %25, label %.preheader65

.preheader65:                                     ; preds = %19, %.preheader65
  %23 = tail call i32 @SDL_ReportAssertion_REAL(ptr noundef nonnull @SDL_BindGPUVertexSamplers_REAL.sdl_assert_data, ptr noundef nonnull @__func__.SDL_BindGPUVertexSamplers_REAL, ptr noundef nonnull @.str.8, i32 noundef 1864) #7
  switch i32 %23, label %.thread [
    i32 0, label %.preheader65
    i32 1, label %24
  ]

24:                                               ; preds = %.preheader65
  tail call void @llvm.debugtrap()
  br label %.thread

25:                                               ; preds = %19
  %26 = getelementptr inbounds nuw i8, ptr %14, i64 122
  %27 = load i8, ptr %26, align 2, !range !5, !noundef !6
  %28 = trunc nuw i8 %27 to i1
  br i1 %28, label %.loopexit, label %.preheader64

.preheader64:                                     ; preds = %25
  %29 = getelementptr inbounds nuw i8, ptr %0, i64 48
  %30 = load i32, ptr %29, align 8
  %.not69 = icmp eq i32 %30, 0
  br i1 %.not69, label %.preheader61, label %.preheader63.lr.ph

.preheader63.lr.ph:                               ; preds = %.preheader64
  %.not70 = icmp eq i32 %3, 0
  %31 = getelementptr inbounds nuw i8, ptr %0, i64 16
  br i1 %.not70, label %.loopexit, label %.preheader63.us.preheader

.preheader63.us.preheader:                        ; preds = %.preheader63.lr.ph
  %wide.trip.count = zext i32 %3 to i64
  br label %.preheader63.us

.preheader63.us:                                  ; preds = %.preheader63.us.preheader, %._crit_edge.us
  %indvars.iv75 = phi i64 [ 0, %.preheader63.us.preheader ], [ %indvars.iv.next76, %._crit_edge.us ]
  %32 = getelementptr inbounds nuw [4 x ptr], ptr %31, i64 0, i64 %indvars.iv75
  br label %33

33:                                               ; preds = %.preheader63.us, %.thread53.us
  %indvars.iv = phi i64 [ 0, %.preheader63.us ], [ %indvars.iv.next, %.thread53.us ]
  %34 = load ptr, ptr %32, align 8
  %35 = getelementptr inbounds nuw %struct.SDL_GPUTextureSamplerBinding, ptr %2, i64 %indvars.iv
  %36 = load ptr, ptr %35, align 8
  %37 = icmp eq ptr %34, %36
  br i1 %37, label %.preheader62.us, label %.thread53.us

.preheader62.us:                                  ; preds = %33, %.preheader62.us
  %38 = tail call i32 @SDL_ReportAssertion_REAL(ptr noundef nonnull @SDL_BindGPUVertexSamplers_REAL.sdl_assert_data.235, ptr noundef nonnull @__func__.SDL_BindGPUVertexSamplers_REAL, ptr noundef nonnull @.str.8, i32 noundef 1868) #7
  switch i32 %38, label %.thread53.us [
    i32 0, label %.preheader62.us
    i32 1, label %39
  ]

39:                                               ; preds = %.preheader62.us
  tail call void @llvm.debugtrap()
  br label %.thread53.us

.thread53.us:                                     ; preds = %.preheader62.us, %39, %33
  %indvars.iv.next = add nuw nsw i64 %indvars.iv, 1
  %exitcond.not = icmp eq i64 %indvars.iv.next, %wide.trip.count
  br i1 %exitcond.not, label %._crit_edge.us, label %33, !llvm.loop !17

._crit_edge.us:                                   ; preds = %.thread53.us
  %indvars.iv.next76 = add nuw nsw i64 %indvars.iv75, 1
  %40 = load i32, ptr %29, align 8
  %41 = zext i32 %40 to i64
  %42 = icmp samesign ult i64 %indvars.iv.next76, %41
  br i1 %42, label %.preheader63.us, label %.preheader61, !llvm.loop !18

.preheader61:                                     ; preds = %._crit_edge.us, %.preheader64
  %.not71 = icmp eq i32 %3, 0
  br i1 %.not71, label %.loopexit, label %.lr.ph

.lr.ph:                                           ; preds = %.preheader61
  %43 = getelementptr inbounds nuw i8, ptr %0, i64 56
  %44 = load ptr, ptr %43, align 8
  %45 = icmp eq ptr %44, null
  br i1 %45, label %.loopexit, label %.lr.ph.split.preheader

.lr.ph.split.preheader:                           ; preds = %.lr.ph
  %wide.trip.count81 = zext i32 %3 to i64
  br label %.lr.ph.split

.lr.ph.splitthread-pre-split:                     ; preds = %.thread57
  %.pr = load ptr, ptr %43, align 8
  br label %.lr.ph.split

.lr.ph.split:                                     ; preds = %.lr.ph.splitthread-pre-split, %.lr.ph.split.preheader
  %46 = phi ptr [ %.pr, %.lr.ph.splitthread-pre-split ], [ %44, %.lr.ph.split.preheader ]
  %indvars.iv78 = phi i64 [ %indvars.iv.next79, %.lr.ph.splitthread-pre-split ], [ 0, %.lr.ph.split.preheader ]
  %.not = icmp eq ptr %46, null
  br i1 %.not, label %.thread57, label %47

47:                                               ; preds = %.lr.ph.split
  %48 = getelementptr inbounds nuw %struct.SDL_GPUTextureSamplerBinding, ptr %2, i64 %indvars.iv78
  %49 = load ptr, ptr %48, align 8
  %50 = icmp eq ptr %46, %49
  br i1 %50, label %.preheader, label %.thread57

.preheader:                                       ; preds = %47, %.preheader
  %51 = tail call i32 @SDL_ReportAssertion_REAL(ptr noundef nonnull @SDL_BindGPUVertexSamplers_REAL.sdl_assert_data.238, ptr noundef nonnull @__func__.SDL_BindGPUVertexSamplers_REAL, ptr noundef nonnull @.str.8, i32 noundef 1868) #7
  switch i32 %51, label %.thread57 [
    i32 0, label %.preheader
    i32 1, label %52
  ]

52:                                               ; preds = %.preheader
  tail call void @llvm.debugtrap()
  br label %.thread57

.thread57:                                        ; preds = %.preheader, %52, %.lr.ph.split, %47
  %indvars.iv.next79 = add nuw nsw i64 %indvars.iv78, 1
  %exitcond82.not = icmp eq i64 %indvars.iv.next79, %wide.trip.count81
  br i1 %exitcond82.not, label %.loopexit, label %.lr.ph.splitthread-pre-split, !llvm.loop !19

.loopexit:                                        ; preds = %.thread57, %.preheader63.lr.ph, %.lr.ph, %.preheader61, %25, %13
  %53 = load ptr, ptr %0, align 8
  %54 = load ptr, ptr %53, align 8
  %55 = getelementptr inbounds nuw i8, ptr %54, i64 232
  %56 = load ptr, ptr %55, align 8
  tail call void %56(ptr noundef nonnull %53, i32 noundef %1, ptr noundef %2, i32 noundef %3) #7
  br label %.thread

.thread:                                          ; preds = %.preheader65, %24, %.loopexit, %11, %6
  ret void
}